; Function Attrs: mustprogress nofree nounwind uwtable
define hidden noundef i32 @_ZN4test6filenoEP8_IO_FILE(ptr noundef captures(none) %0) local_unnamed_addr #1 {
  %2 = load i32, ptr @_ZN12_GLOBAL__N_112fileno_countE, align 4, !tbaa !10
  %.not = icmp eq i32 %2, 0
  br i1 %.not, label %7, label %3

3:                                                ; preds = %1
  %4 = add nsw i32 %2, 1
  store i32 %4, ptr @_ZN12_GLOBAL__N_112fileno_countE, align 4, !tbaa !10
  %.not2 = icmp eq i32 %2, 3
  br i1 %.not2, label %7, label %5

5:                                                ; preds = %3
  %6 = tail call ptr @__errno_location() #28
  store i32 4, ptr %6, align 4, !tbaa !10
  br label %9

7:                                                ; preds = %3, %1
  %8 = tail call i32 @fileno(ptr noundef %0) #29
  br label %9

9:                                                ; preds = %7, %5
  %.0 = phi i32 [ -1, %5 ], [ %8, %7 ]
  ret i32 %.0
}